	.file	"main.cpp"
	.intel_syntax noprefix
	.text
.Ltext0:
	.section	.rodata
	.type	_ZStL19piecewise_construct, @object
	.size	_ZStL19piecewise_construct, 1
_ZStL19piecewise_construct:
	.zero	1
	.local	_ZStL8__ioinit
	.comm	_ZStL8__ioinit,1,1
.LC0:
	.string	"log2(4) = %d\n"
.LC1:
	.string	"log2(16) = %d\n"
.LC2:
	.string	"log2(256) = %d\n"
.LC3:
	.string	"log2(1024) = %d\n"
	.text
	.globl	main
	.type	main, @function
main:
.LFB1678:
	.file 1 "main.cpp"
	.loc 1 16 1
	.cfi_startproc
	push	rbp
	.cfi_def_cfa_offset 16
	.cfi_offset 6, -16
	mov	rbp, rsp
	.cfi_def_cfa_register 6
	.loc 1 17 11
	mov	edi, 4
	call	log2
	mov	esi, eax
	mov	edi, OFFSET FLAT:.LC0
	mov	eax, 0
	call	printf
	.loc 1 18 11
	mov	edi, 16
	call	log2
	mov	esi, eax
	mov	edi, OFFSET FLAT:.LC1
	mov	eax, 0
	call	printf
	.loc 1 19 11
	mov	edi, 256
	call	log2
	mov	esi, eax
	mov	edi, OFFSET FLAT:.LC2
	mov	eax, 0
	call	printf
	.loc 1 20 11
	mov	edi, 1024
	call	log2
	mov	esi, eax
	mov	edi, OFFSET FLAT:.LC3
	mov	eax, 0
	call	printf
	.loc 1 21 1
	mov	eax, 0
	pop	rbp
	.cfi_def_cfa 7, 8
	ret
	.cfi_endproc
.LFE1678:
	.size	main, .-main
	.type	_Z41__static_initialization_and_destruction_0ii, @function
_Z41__static_initialization_and_destruction_0ii:
.LFB2159:
	.loc 1 21 1
	.cfi_startproc
	push	rbp
	.cfi_def_cfa_offset 16
	.cfi_offset 6, -16
	mov	rbp, rsp
	.cfi_def_cfa_register 6
	sub	rsp, 16
	mov	DWORD PTR [rbp-4], edi
	mov	DWORD PTR [rbp-8], esi
	.loc 1 21 1
	cmp	DWORD PTR [rbp-4], 1
	jne	.L5
	.loc 1 21 1 is_stmt 0 discriminator 1
	cmp	DWORD PTR [rbp-8], 65535
	jne	.L5
	.file 2 "/usr/include/c++/8/iostream"
	.loc 2 74 25 is_stmt 1
	mov	edi, OFFSET FLAT:_ZStL8__ioinit
	call	_ZNSt8ios_base4InitC1Ev
	mov	edx, OFFSET FLAT:__dso_handle
	mov	esi, OFFSET FLAT:_ZStL8__ioinit
	mov	edi, OFFSET FLAT:_ZNSt8ios_base4InitD1Ev
	call	__cxa_atexit
.L5:
	.loc 1 21 1
	nop
	leave
	.cfi_def_cfa 7, 8
	ret
	.cfi_endproc
.LFE2159:
	.size	_Z41__static_initialization_and_destruction_0ii, .-_Z41__static_initialization_and_destruction_0ii
	.type	_GLOBAL__sub_I_main, @function
_GLOBAL__sub_I_main:
.LFB2160:
	.loc 1 21 1
	.cfi_startproc
	push	rbp
	.cfi_def_cfa_offset 16
	.cfi_offset 6, -16
	mov	rbp, rsp
	.cfi_def_cfa_register 6
	.loc 1 21 1
	mov	esi, 65535
	mov	edi, 1
	call	_Z41__static_initialization_and_destruction_0ii
	pop	rbp
	.cfi_def_cfa 7, 8
	ret
	.cfi_endproc
.LFE2160:
	.size	_GLOBAL__sub_I_main, .-_GLOBAL__sub_I_main
	.section	.init_array,"aw"
	.align 8
	.quad	_GLOBAL__sub_I_main
	.text
.Letext0:
	.file 3 "/usr/include/c++/8/cwchar"
	.file 4 "/usr/include/c++/8/new"
	.file 5 "/usr/include/c++/8/bits/exception_ptr.h"
	.file 6 "/usr/include/c++/8/type_traits"
	.file 7 "/usr/include/c++/8/x86_64-redhat-linux/bits/c++config.h"
	.file 8 "/usr/include/c++/8/bits/cpp_type_traits.h"
	.file 9 "/usr/include/c++/8/bits/stl_pair.h"
	.file 10 "/usr/include/c++/8/debug/debug.h"
	.file 11 "/usr/include/c++/8/bits/char_traits.h"
	.file 12 "/usr/include/c++/8/cstdint"
	.file 13 "/usr/include/c++/8/clocale"
	.file 14 "/usr/include/c++/8/cstdlib"
	.file 15 "/usr/include/c++/8/cstdio"
	.file 16 "/usr/include/c++/8/bits/basic_string.h"
	.file 17 "/usr/include/c++/8/system_error"
	.file 18 "/usr/include/c++/8/bits/ios_base.h"
	.file 19 "/usr/include/c++/8/cwctype"
	.file 20 "/usr/include/c++/8/iosfwd"
	.file 21 "/usr/include/c++/8/bits/predefined_ops.h"
	.file 22 "/usr/include/c++/8/ext/new_allocator.h"
	.file 23 "/usr/include/c++/8/ext/numeric_traits.h"
	.file 24 "/usr/lib/gcc/x86_64-redhat-linux/8/include/stddef.h"
	.file 25 "<built-in>"
	.file 26 "/usr/include/bits/types/wint_t.h"
	.file 27 "/usr/include/bits/types/__mbstate_t.h"
	.file 28 "/usr/include/bits/types/mbstate_t.h"
	.file 29 "/usr/include/bits/types/__FILE.h"
	.file 30 "/usr/include/bits/types/struct_FILE.h"
	.file 31 "/usr/include/bits/types/FILE.h"
	.file 32 "/usr/include/wchar.h"
	.file 33 "/usr/include/bits/types/struct_tm.h"
	.file 34 "/usr/include/bits/types.h"
	.file 35 "/usr/include/bits/stdint-intn.h"
	.file 36 "/usr/include/bits/stdint-uintn.h"
	.file 37 "/usr/include/stdint.h"
	.file 38 "/usr/include/locale.h"
	.file 39 "/usr/include/time.h"
	.file 40 "/usr/include/c++/8/x86_64-redhat-linux/bits/atomic_word.h"
	.file 41 "/usr/include/stdlib.h"
	.file 42 "/usr/include/bits/types/__fpos_t.h"
	.file 43 "/usr/include/stdio.h"
	.file 44 "/usr/include/bits/sys_errlist.h"
	.file 45 "/usr/include/errno.h"
	.file 46 "/usr/include/bits/wctype-wchar.h"
	.file 47 "/usr/include/wctype.h"
	.file 48 "/usr/include/unistd.h"
	.file 49 "/usr/include/bits/getopt_core.h"
	.section	.note.GNU-stack,"",@progbits
