   1              		.file	"main.cpp"
   2              		.intel_syntax noprefix
   3              		.text
   4              	.Ltext0:
   5              		.section	.rodata
   8              	_ZStL19piecewise_construct:
   9 0000 00       		.zero	1
  10              		.local	_ZStL8__ioinit
  11              		.comm	_ZStL8__ioinit,1,1
  12              	.LC0:
  13 0001 706F7765 		.string	"power2(1) = %d\n"
  13      72322831 
  13      29203D20 
  13      25640A00 
  14              	.LC1:
  15 0011 706F7765 		.string	"power2(2) = %d\n"
  15      72322832 
  15      29203D20 
  15      25640A00 
  16              	.LC2:
  17 0021 706F7765 		.string	"power2(3) = %d\n"
  17      72322833 
  17      29203D20 
  17      25640A00 
  18              	.LC3:
  19 0031 706F7765 		.string	"power2(4) = %d\n"
  19      72322834 
  19      29203D20 
  19      25640A00 
  20              	.LC4:
  21 0041 706F7765 		.string	"power2(5) = %d\n"
  21      72322835 
  21      29203D20 
  21      25640A00 
  22              		.text
  23              		.globl	main
  25              	main:
  26              	.LFB1678:
  27              		.file 1 "main.cpp"
   1:main.cpp      **** #include <iostream>
   2:main.cpp      **** #include <stdint.h>
   3:main.cpp      **** #include <bitset>
   4:main.cpp      **** #include <unistd.h>
   5:main.cpp      **** 
   6:main.cpp      **** // 121p. 연습문제 - 23
   7:main.cpp      **** // 아래 power2 함수를 어셈블리어로 번역하라.
   8:main.cpp      **** // power2함수는 2의 n승의 값의 결과를 반환해주는 함수이다.
   9:main.cpp      **** 
  10:main.cpp      **** // int power2(int n)
  11:main.cpp      **** // {
  12:main.cpp      **** //     int result = 1;
  13:main.cpp      **** //     result = result << n;
  14:main.cpp      **** //     return result;
  15:main.cpp      **** // }
  16:main.cpp      **** 
  17:main.cpp      **** extern int power2(int n) asm("power2");
  18:main.cpp      **** 
  19:main.cpp      **** int main()
  20:main.cpp      **** {
  28              		.loc 1 20 1
  29              		.cfi_startproc
  30 0000 55       		push	rbp
  31              		.cfi_def_cfa_offset 16
  32              		.cfi_offset 6, -16
  33 0001 4889E5   		mov	rbp, rsp
  34              		.cfi_def_cfa_register 6
  21:main.cpp      ****     printf("power2(1) = %d\n", power2(1));
  35              		.loc 1 21 11
  36 0004 BF010000 		mov	edi, 1
  36      00
  37 0009 E8000000 		call	power2
  37      00
  38 000e 89C6     		mov	esi, eax
  39 0010 BF000000 		mov	edi, OFFSET FLAT:.LC0
  39      00
  40 0015 B8000000 		mov	eax, 0
  40      00
  41 001a E8000000 		call	printf
  41      00
  22:main.cpp      ****     printf("power2(2) = %d\n", power2(2));
  42              		.loc 1 22 11
  43 001f BF020000 		mov	edi, 2
  43      00
  44 0024 E8000000 		call	power2
  44      00
  45 0029 89C6     		mov	esi, eax
  46 002b BF000000 		mov	edi, OFFSET FLAT:.LC1
  46      00
  47 0030 B8000000 		mov	eax, 0
  47      00
  48 0035 E8000000 		call	printf
  48      00
  23:main.cpp      ****     printf("power2(3) = %d\n", power2(3));
  49              		.loc 1 23 11
  50 003a BF030000 		mov	edi, 3
  50      00
  51 003f E8000000 		call	power2
  51      00
  52 0044 89C6     		mov	esi, eax
  53 0046 BF000000 		mov	edi, OFFSET FLAT:.LC2
  53      00
  54 004b B8000000 		mov	eax, 0
  54      00
  55 0050 E8000000 		call	printf
  55      00
  24:main.cpp      ****     printf("power2(4) = %d\n", power2(4));
  56              		.loc 1 24 11
  57 0055 BF040000 		mov	edi, 4
  57      00
  58 005a E8000000 		call	power2
  58      00
  59 005f 89C6     		mov	esi, eax
  60 0061 BF000000 		mov	edi, OFFSET FLAT:.LC3
  60      00
  61 0066 B8000000 		mov	eax, 0
  61      00
  62 006b E8000000 		call	printf
  62      00
  25:main.cpp      ****     printf("power2(5) = %d\n", power2(5));
  63              		.loc 1 25 11
  64 0070 BF050000 		mov	edi, 5
  64      00
  65 0075 E8000000 		call	power2
  65      00
  66 007a 89C6     		mov	esi, eax
  67 007c BF000000 		mov	edi, OFFSET FLAT:.LC4
  67      00
  68 0081 B8000000 		mov	eax, 0
  68      00
  69 0086 E8000000 		call	printf
  69      00
  26:main.cpp      **** }
  70              		.loc 1 26 1
  71 008b B8000000 		mov	eax, 0
  71      00
  72 0090 5D       		pop	rbp
  73              		.cfi_def_cfa 7, 8
  74 0091 C3       		ret
  75              		.cfi_endproc
  76              	.LFE1678:
  79              	_Z41__static_initialization_and_destruction_0ii:
  80              	.LFB2159:
  81              		.loc 1 26 1
  82              		.cfi_startproc
  83 0092 55       		push	rbp
  84              		.cfi_def_cfa_offset 16
  85              		.cfi_offset 6, -16
  86 0093 4889E5   		mov	rbp, rsp
  87              		.cfi_def_cfa_register 6
  88 0096 4883EC10 		sub	rsp, 16
  89 009a 897DFC   		mov	DWORD PTR [rbp-4], edi
  90 009d 8975F8   		mov	DWORD PTR [rbp-8], esi
  91              		.loc 1 26 1
  92 00a0 837DFC01 		cmp	DWORD PTR [rbp-4], 1
  93 00a4 7527     		jne	.L5
  94              		.loc 1 26 1 is_stmt 0 discriminator 1
  95 00a6 817DF8FF 		cmp	DWORD PTR [rbp-8], 65535
  95      FF0000
  96 00ad 751E     		jne	.L5
  97              		.file 2 "/usr/include/c++/8/iostream"
   1:/usr/include/c++/8/iostream **** // Standard iostream objects -*- C++ -*-
   2:/usr/include/c++/8/iostream **** 
   3:/usr/include/c++/8/iostream **** // Copyright (C) 1997-2018 Free Software Foundation, Inc.
   4:/usr/include/c++/8/iostream **** //
   5:/usr/include/c++/8/iostream **** // This file is part of the GNU ISO C++ Library.  This library is free
   6:/usr/include/c++/8/iostream **** // software; you can redistribute it and/or modify it under the
   7:/usr/include/c++/8/iostream **** // terms of the GNU General Public License as published by the
   8:/usr/include/c++/8/iostream **** // Free Software Foundation; either version 3, or (at your option)
   9:/usr/include/c++/8/iostream **** // any later version.
  10:/usr/include/c++/8/iostream **** 
  11:/usr/include/c++/8/iostream **** // This library is distributed in the hope that it will be useful,
  12:/usr/include/c++/8/iostream **** // but WITHOUT ANY WARRANTY; without even the implied warranty of
  13:/usr/include/c++/8/iostream **** // MERCHANTABILITY or FITNESS FOR A PARTICULAR PURPOSE.  See the
  14:/usr/include/c++/8/iostream **** // GNU General Public License for more details.
  15:/usr/include/c++/8/iostream **** 
  16:/usr/include/c++/8/iostream **** // Under Section 7 of GPL version 3, you are granted additional
  17:/usr/include/c++/8/iostream **** // permissions described in the GCC Runtime Library Exception, version
  18:/usr/include/c++/8/iostream **** // 3.1, as published by the Free Software Foundation.
  19:/usr/include/c++/8/iostream **** 
  20:/usr/include/c++/8/iostream **** // You should have received a copy of the GNU General Public License and
  21:/usr/include/c++/8/iostream **** // a copy of the GCC Runtime Library Exception along with this program;
  22:/usr/include/c++/8/iostream **** // see the files COPYING3 and COPYING.RUNTIME respectively.  If not, see
  23:/usr/include/c++/8/iostream **** // <http://www.gnu.org/licenses/>.
  24:/usr/include/c++/8/iostream **** 
  25:/usr/include/c++/8/iostream **** /** @file include/iostream
  26:/usr/include/c++/8/iostream ****  *  This is a Standard C++ Library header.
  27:/usr/include/c++/8/iostream ****  */
  28:/usr/include/c++/8/iostream **** 
  29:/usr/include/c++/8/iostream **** //
  30:/usr/include/c++/8/iostream **** // ISO C++ 14882: 27.3  Standard iostream objects
  31:/usr/include/c++/8/iostream **** //
  32:/usr/include/c++/8/iostream **** 
  33:/usr/include/c++/8/iostream **** #ifndef _GLIBCXX_IOSTREAM
  34:/usr/include/c++/8/iostream **** #define _GLIBCXX_IOSTREAM 1
  35:/usr/include/c++/8/iostream **** 
  36:/usr/include/c++/8/iostream **** #pragma GCC system_header
  37:/usr/include/c++/8/iostream **** 
  38:/usr/include/c++/8/iostream **** #include <bits/c++config.h>
  39:/usr/include/c++/8/iostream **** #include <ostream>
  40:/usr/include/c++/8/iostream **** #include <istream>
  41:/usr/include/c++/8/iostream **** 
  42:/usr/include/c++/8/iostream **** namespace std _GLIBCXX_VISIBILITY(default)
  43:/usr/include/c++/8/iostream **** {
  44:/usr/include/c++/8/iostream **** _GLIBCXX_BEGIN_NAMESPACE_VERSION
  45:/usr/include/c++/8/iostream **** 
  46:/usr/include/c++/8/iostream ****   /**
  47:/usr/include/c++/8/iostream ****    *  @name Standard Stream Objects
  48:/usr/include/c++/8/iostream ****    *
  49:/usr/include/c++/8/iostream ****    *  The &lt;iostream&gt; header declares the eight <em>standard stream
  50:/usr/include/c++/8/iostream ****    *  objects</em>.  For other declarations, see
  51:/usr/include/c++/8/iostream ****    *  http://gcc.gnu.org/onlinedocs/libstdc++/manual/io.html
  52:/usr/include/c++/8/iostream ****    *  and the @link iosfwd I/O forward declarations @endlink
  53:/usr/include/c++/8/iostream ****    *
  54:/usr/include/c++/8/iostream ****    *  They are required by default to cooperate with the global C
  55:/usr/include/c++/8/iostream ****    *  library's @c FILE streams, and to be available during program
  56:/usr/include/c++/8/iostream ****    *  startup and termination. For more information, see the section of the
  57:/usr/include/c++/8/iostream ****    *  manual linked to above.
  58:/usr/include/c++/8/iostream ****   */
  59:/usr/include/c++/8/iostream ****   //@{
  60:/usr/include/c++/8/iostream ****   extern istream cin;		/// Linked to standard input
  61:/usr/include/c++/8/iostream ****   extern ostream cout;		/// Linked to standard output
  62:/usr/include/c++/8/iostream ****   extern ostream cerr;		/// Linked to standard error (unbuffered)
  63:/usr/include/c++/8/iostream ****   extern ostream clog;		/// Linked to standard error (buffered)
  64:/usr/include/c++/8/iostream **** 
  65:/usr/include/c++/8/iostream **** #ifdef _GLIBCXX_USE_WCHAR_T
  66:/usr/include/c++/8/iostream ****   extern wistream wcin;		/// Linked to standard input
  67:/usr/include/c++/8/iostream ****   extern wostream wcout;	/// Linked to standard output
  68:/usr/include/c++/8/iostream ****   extern wostream wcerr;	/// Linked to standard error (unbuffered)
  69:/usr/include/c++/8/iostream ****   extern wostream wclog;	/// Linked to standard error (buffered)
  70:/usr/include/c++/8/iostream **** #endif
  71:/usr/include/c++/8/iostream ****   //@}
  72:/usr/include/c++/8/iostream **** 
  73:/usr/include/c++/8/iostream ****   // For construction of filebuffers for cout, cin, cerr, clog et. al.
  74:/usr/include/c++/8/iostream ****   static ios_base::Init __ioinit;
  98              		.loc 2 74 25 is_stmt 1
  99 00af BF000000 		mov	edi, OFFSET FLAT:_ZStL8__ioinit
  99      00
 100 00b4 E8000000 		call	_ZNSt8ios_base4InitC1Ev
 100      00
 101 00b9 BA000000 		mov	edx, OFFSET FLAT:__dso_handle
 101      00
 102 00be BE000000 		mov	esi, OFFSET FLAT:_ZStL8__ioinit
 102      00
 103 00c3 BF000000 		mov	edi, OFFSET FLAT:_ZNSt8ios_base4InitD1Ev
 103      00
 104 00c8 E8000000 		call	__cxa_atexit
 104      00
 105              	.L5:
 106              		.loc 1 26 1
 107 00cd 90       		nop
 108 00ce C9       		leave
 109              		.cfi_def_cfa 7, 8
 110 00cf C3       		ret
 111              		.cfi_endproc
 112              	.LFE2159:
 115              	_GLOBAL__sub_I_main:
 116              	.LFB2160:
 117              		.loc 1 26 1
 118              		.cfi_startproc
 119 00d0 55       		push	rbp
 120              		.cfi_def_cfa_offset 16
 121              		.cfi_offset 6, -16
 122 00d1 4889E5   		mov	rbp, rsp
 123              		.cfi_def_cfa_register 6
 124              		.loc 1 26 1
 125 00d4 BEFFFF00 		mov	esi, 65535
 125      00
 126 00d9 BF010000 		mov	edi, 1
 126      00
 127 00de E8AFFFFF 		call	_Z41__static_initialization_and_destruction_0ii
 127      FF
 128 00e3 5D       		pop	rbp
 129              		.cfi_def_cfa 7, 8
 130 00e4 C3       		ret
 131              		.cfi_endproc
 132              	.LFE2160:
 134              		.section	.init_array,"aw"
 135              		.align 8
 136 0000 00000000 		.quad	_GLOBAL__sub_I_main
 136      00000000 
 137              		.text
 138              	.Letext0:
 139              		.file 3 "/usr/include/c++/8/cwchar"
 140              		.file 4 "/usr/include/c++/8/new"
 141              		.file 5 "/usr/include/c++/8/bits/exception_ptr.h"
 142              		.file 6 "/usr/include/c++/8/type_traits"
 143              		.file 7 "/usr/include/c++/8/x86_64-redhat-linux/bits/c++config.h"
 144              		.file 8 "/usr/include/c++/8/bits/cpp_type_traits.h"
 145              		.file 9 "/usr/include/c++/8/bits/stl_pair.h"
 146              		.file 10 "/usr/include/c++/8/debug/debug.h"
 147              		.file 11 "/usr/include/c++/8/bits/char_traits.h"
 148              		.file 12 "/usr/include/c++/8/cstdint"
 149              		.file 13 "/usr/include/c++/8/clocale"
 150              		.file 14 "/usr/include/c++/8/cstdlib"
 151              		.file 15 "/usr/include/c++/8/cstdio"
 152              		.file 16 "/usr/include/c++/8/bits/basic_string.h"
 153              		.file 17 "/usr/include/c++/8/system_error"
 154              		.file 18 "/usr/include/c++/8/bits/ios_base.h"
 155              		.file 19 "/usr/include/c++/8/cwctype"
 156              		.file 20 "/usr/include/c++/8/iosfwd"
 157              		.file 21 "/usr/include/c++/8/bits/predefined_ops.h"
 158              		.file 22 "/usr/include/c++/8/ext/new_allocator.h"
 159              		.file 23 "/usr/include/c++/8/ext/numeric_traits.h"
 160              		.file 24 "/usr/lib/gcc/x86_64-redhat-linux/8/include/stddef.h"
 161              		.file 25 "<built-in>"
 162              		.file 26 "/usr/include/bits/types/wint_t.h"
 163              		.file 27 "/usr/include/bits/types/__mbstate_t.h"
 164              		.file 28 "/usr/include/bits/types/mbstate_t.h"
 165              		.file 29 "/usr/include/bits/types/__FILE.h"
 166              		.file 30 "/usr/include/bits/types/struct_FILE.h"
 167              		.file 31 "/usr/include/bits/types/FILE.h"
 168              		.file 32 "/usr/include/wchar.h"
 169              		.file 33 "/usr/include/bits/types/struct_tm.h"
 170              		.file 34 "/usr/include/bits/types.h"
 171              		.file 35 "/usr/include/bits/stdint-intn.h"
 172              		.file 36 "/usr/include/bits/stdint-uintn.h"
 173              		.file 37 "/usr/include/stdint.h"
 174              		.file 38 "/usr/include/locale.h"
 175              		.file 39 "/usr/include/time.h"
 176              		.file 40 "/usr/include/c++/8/x86_64-redhat-linux/bits/atomic_word.h"
 177              		.file 41 "/usr/include/stdlib.h"
 178              		.file 42 "/usr/include/bits/types/__fpos_t.h"
 179              		.file 43 "/usr/include/stdio.h"
 180              		.file 44 "/usr/include/bits/sys_errlist.h"
 181              		.file 45 "/usr/include/errno.h"
 182              		.file 46 "/usr/include/bits/wctype-wchar.h"
 183              		.file 47 "/usr/include/wctype.h"
 184              		.file 48 "/usr/include/unistd.h"
 185              		.file 49 "/usr/include/bits/getopt_core.h"
