	.file	"main.cpp"
	.intel_syntax noprefix
	.text
.Ltext0:
	.section	.rodata
	.type	_ZStL19piecewise_construct, @object
	.size	_ZStL19piecewise_construct, 1
_ZStL19piecewise_construct:
	.zero	1
	.local	_ZStL8__ioinit
	.comm	_ZStL8__ioinit,1,1
.LC0:
	.string	"\354\264\210\352\270\260\355\231\224\353\220\234 \353\260\260\354\227\264"
.LC1:
	.string	"%d\t"
.LC2:
	.string	"\n======================"
.LC3:
	.string	"\354\247\200\354\227\255\353\263\200\354\210\230\353\241\234\354\204\234\354\235\230 \353\260\260\354\227\264"
	.align 8
.LC4:
	.string	"edi \353\252\205\353\240\271\354\226\264 \354\202\254\354\232\251 - \353\247\244\352\260\234\353\263\200\354\210\230 \353\260\260\354\227\264 \354\202\254\354\232\251"
.LC5:
	.string	"%d "
	.align 8
.LC6:
	.string	"esi \353\252\205\353\240\271\354\226\264 \354\202\254\354\232\251 - \353\247\244\352\260\234\353\263\200\354\210\230 \353\260\260\354\227\264 \354\202\254\354\232\251"
	.align 8
.LC7:
	.string	"esi \353\252\205\353\240\271\354\226\264 \354\202\254\354\232\251 - \354\247\200\354\227\255\353\263\200\354\210\230 \353\260\260\354\227\264 \354\202\254\354\232\251"
	.align 8
.LC8:
	.string	"direction flag \355\231\225\354\235\270 - \354\247\200\354\227\255\353\263\200\354\210\230 \353\260\260\354\227\264 \354\202\254\354\232\251"
	.align 8
.LC9:
	.string	"direction flag \355\231\225\354\235\270 - \353\247\244\352\260\234\353\263\200\354\210\230 \353\260\260\354\227\264 \354\202\254\354\232\251"
.LC10:
	.string	">> \354\233\220\353\263\270 \353\260\260\354\227\264 \354\210\234\354\204\234"
.LC11:
	.string	">> \353\260\230\353\214\200\353\241\234 \354\235\275\352\270\260"
	.text
	.globl	main
	.type	main, @function
main:
.LFB1678:
	.file 1 "main.cpp"
	.loc 1 26 1
	.cfi_startproc
	push	rbp
	.cfi_def_cfa_offset 16
	.cfi_offset 6, -16
	mov	rbp, rsp
	.cfi_def_cfa_register 6
	sub	rsp, 96
	mov	DWORD PTR [rbp-84], edi
	mov	QWORD PTR [rbp-96], rsi
	.loc 1 27 20
	mov	edi, 0
	call	time
	.loc 1 27 25
	mov	QWORD PTR [rbp-32], rax
	.loc 1 28 10
	lea	rax, [rbp-32]
	mov	rdi, rax
	call	stime
	.loc 1 31 11
	mov	edi, OFFSET FLAT:.LC0
	call	puts
.LBB2:
	.loc 1 32 14
	mov	DWORD PTR [rbp-4], 0
.L3:
	.loc 1 32 23 discriminator 1
	mov	eax, DWORD PTR arr_len[rip]
	cmp	DWORD PTR [rbp-4], eax
	jge	.L2
	.loc 1 33 15
	mov	eax, DWORD PTR [rbp-4]
	cdqe
	mov	eax, DWORD PTR arr[0+rax*4]
	mov	esi, eax
	mov	edi, OFFSET FLAT:.LC1
	mov	eax, 0
	call	printf
	.loc 1 32 5
	add	DWORD PTR [rbp-4], 1
	jmp	.L3
.L2:
.LBE2:
	.loc 1 34 11
	mov	edi, OFFSET FLAT:.LC2
	call	puts
.LBB3:
	.loc 1 35 14
	mov	DWORD PTR [rbp-8], 0
.L5:
	.loc 1 35 23 discriminator 1
	mov	eax, DWORD PTR brr_len[rip]
	cmp	DWORD PTR [rbp-8], eax
	jge	.L4
	.loc 1 36 15
	mov	eax, DWORD PTR [rbp-8]
	cdqe
	mov	eax, DWORD PTR brr[0+rax*4]
	mov	esi, eax
	mov	edi, OFFSET FLAT:.LC1
	mov	eax, 0
	call	printf
	.loc 1 35 5
	add	DWORD PTR [rbp-8], 1
	jmp	.L5
.L4:
.LBE3:
	.loc 1 37 11
	mov	edi, OFFSET FLAT:.LC2
	call	puts
	.loc 1 40 11
	mov	edi, OFFSET FLAT:.LC3
	call	puts
	.loc 1 41 19
	call	local_arr_test
	.loc 1 42 11
	mov	edi, OFFSET FLAT:.LC2
	call	puts
	.loc 1 45 11
	mov	edi, OFFSET FLAT:.LC4
	call	puts
	.loc 1 46 9
	mov	QWORD PTR [rbp-80], 0
	mov	QWORD PTR [rbp-72], 0
	mov	QWORD PTR [rbp-64], 0
	mov	QWORD PTR [rbp-56], 0
	mov	QWORD PTR [rbp-48], 0
	.loc 1 48 23
	lea	rax, [rbp-80]
	mov	esi, 10
	mov	rdi, rax
	call	edi_param_arr_test
.LBB4:
	.loc 1 50 14
	mov	DWORD PTR [rbp-12], 0
.L7:
	.loc 1 50 23 discriminator 1
	cmp	DWORD PTR [rbp-12], 9
	jg	.L6
	.loc 1 51 15
	mov	eax, DWORD PTR [rbp-12]
	cdqe
	mov	eax, DWORD PTR [rbp-80+rax*4]
	mov	esi, eax
	mov	edi, OFFSET FLAT:.LC5
	mov	eax, 0
	call	printf
	.loc 1 50 5
	add	DWORD PTR [rbp-12], 1
	jmp	.L7
.L6:
.LBE4:
	.loc 1 52 11
	mov	edi, OFFSET FLAT:.LC2
	call	puts
.LBB5:
	.loc 1 54 14
	mov	DWORD PTR [rbp-16], 0
.L9:
	.loc 1 54 22 discriminator 3
	cmp	DWORD PTR [rbp-16], 9
	jg	.L8
	.loc 1 55 20 discriminator 2
	call	rand
	mov	ecx, eax
	.loc 1 55 23 discriminator 2
	mov	edx, 1374389535
	mov	eax, ecx
	imul	edx
	sar	edx, 5
	mov	eax, ecx
	sar	eax, 31
	sub	edx, eax
	mov	eax, edx
	imul	eax, eax, 100
	sub	ecx, eax
	mov	eax, ecx
	.loc 1 55 14 discriminator 2
	mov	edx, DWORD PTR [rbp-16]
	movsx	rdx, edx
	mov	DWORD PTR [rbp-80+rdx*4], eax
	.loc 1 54 5 discriminator 2
	add	DWORD PTR [rbp-16], 1
	jmp	.L9
.L8:
.LBE5:
	.loc 1 58 11
	mov	edi, OFFSET FLAT:.LC6
	call	puts
	.loc 1 59 23
	lea	rax, [rbp-80]
	mov	esi, 10
	mov	rdi, rax
	call	esi_param_arr_test
	.loc 1 60 11
	mov	edi, OFFSET FLAT:.LC2
	call	puts
	.loc 1 63 11
	mov	edi, OFFSET FLAT:.LC7
	call	puts
	.loc 1 64 23
	call	esi_local_arr_test
	.loc 1 67 11
	mov	edi, OFFSET FLAT:.LC8
	call	puts
	.loc 1 68 34
	call	direction_flag_local_arr_test
	.loc 1 69 11
	mov	edi, OFFSET FLAT:.LC2
	call	puts
	.loc 1 71 11
	mov	edi, OFFSET FLAT:.LC9
	call	puts
	.loc 1 73 11
	mov	edi, OFFSET FLAT:.LC10
	call	puts
.LBB6:
	.loc 1 74 14
	mov	DWORD PTR [rbp-20], 0
.L11:
	.loc 1 74 23 discriminator 1
	cmp	DWORD PTR [rbp-20], 9
	jg	.L10
	.loc 1 75 15
	mov	eax, DWORD PTR [rbp-20]
	cdqe
	mov	eax, DWORD PTR [rbp-80+rax*4]
	mov	esi, eax
	mov	edi, OFFSET FLAT:.LC5
	mov	eax, 0
	call	printf
	.loc 1 74 5
	add	DWORD PTR [rbp-20], 1
	jmp	.L11
.L10:
.LBE6:
	.loc 1 76 11
	mov	edi, OFFSET FLAT:.LC2
	call	puts
	.loc 1 77 11
	mov	edi, OFFSET FLAT:.LC11
	call	puts
	.loc 1 78 34
	lea	rax, [rbp-80]
	mov	esi, 10
	mov	rdi, rax
	call	direction_flag_param_arr_test
	.loc 1 79 11
	mov	edi, OFFSET FLAT:.LC2
	call	puts
	.loc 1 80 1
	mov	eax, 0
	leave
	.cfi_def_cfa 7, 8
	ret
	.cfi_endproc
.LFE1678:
	.size	main, .-main
	.type	_Z41__static_initialization_and_destruction_0ii, @function
_Z41__static_initialization_and_destruction_0ii:
.LFB2159:
	.loc 1 80 1
	.cfi_startproc
	push	rbp
	.cfi_def_cfa_offset 16
	.cfi_offset 6, -16
	mov	rbp, rsp
	.cfi_def_cfa_register 6
	sub	rsp, 16
	mov	DWORD PTR [rbp-4], edi
	mov	DWORD PTR [rbp-8], esi
	.loc 1 80 1
	cmp	DWORD PTR [rbp-4], 1
	jne	.L15
	.loc 1 80 1 is_stmt 0 discriminator 1
	cmp	DWORD PTR [rbp-8], 65535
	jne	.L15
	.file 2 "/usr/include/c++/8/iostream"
	.loc 2 74 25 is_stmt 1
	mov	edi, OFFSET FLAT:_ZStL8__ioinit
	call	_ZNSt8ios_base4InitC1Ev
	mov	edx, OFFSET FLAT:__dso_handle
	mov	esi, OFFSET FLAT:_ZStL8__ioinit
	mov	edi, OFFSET FLAT:_ZNSt8ios_base4InitD1Ev
	call	__cxa_atexit
.L15:
	.loc 1 80 1
	nop
	leave
	.cfi_def_cfa 7, 8
	ret
	.cfi_endproc
.LFE2159:
	.size	_Z41__static_initialization_and_destruction_0ii, .-_Z41__static_initialization_and_destruction_0ii
	.type	_GLOBAL__sub_I_main, @function
_GLOBAL__sub_I_main:
.LFB2160:
	.loc 1 80 1
	.cfi_startproc
	push	rbp
	.cfi_def_cfa_offset 16
	.cfi_offset 6, -16
	mov	rbp, rsp
	.cfi_def_cfa_register 6
	.loc 1 80 1
	mov	esi, 65535
	mov	edi, 1
	call	_Z41__static_initialization_and_destruction_0ii
	pop	rbp
	.cfi_def_cfa 7, 8
	ret
	.cfi_endproc
.LFE2160:
	.size	_GLOBAL__sub_I_main, .-_GLOBAL__sub_I_main
	.section	.init_array,"aw"
	.align 8
	.quad	_GLOBAL__sub_I_main
	.text
.Letext0:
	.file 3 "/usr/include/c++/8/cwchar"
	.file 4 "/usr/include/c++/8/new"
	.file 5 "/usr/include/c++/8/bits/exception_ptr.h"
	.file 6 "/usr/include/c++/8/type_traits"
	.file 7 "/usr/include/c++/8/x86_64-redhat-linux/bits/c++config.h"
	.file 8 "/usr/include/c++/8/bits/cpp_type_traits.h"
	.file 9 "/usr/include/c++/8/bits/stl_pair.h"
	.file 10 "/usr/include/c++/8/debug/debug.h"
	.file 11 "/usr/include/c++/8/bits/char_traits.h"
	.file 12 "/usr/include/c++/8/cstdint"
	.file 13 "/usr/include/c++/8/clocale"
	.file 14 "/usr/include/c++/8/cstdlib"
	.file 15 "/usr/include/c++/8/cstdio"
	.file 16 "/usr/include/c++/8/bits/basic_string.h"
	.file 17 "/usr/include/c++/8/system_error"
	.file 18 "/usr/include/c++/8/bits/ios_base.h"
	.file 19 "/usr/include/c++/8/cwctype"
	.file 20 "/usr/include/c++/8/iosfwd"
	.file 21 "/usr/include/c++/8/ctime"
	.file 22 "/usr/include/c++/8/bits/predefined_ops.h"
	.file 23 "/usr/include/c++/8/ext/new_allocator.h"
	.file 24 "/usr/include/c++/8/ext/numeric_traits.h"
	.file 25 "/usr/lib/gcc/x86_64-redhat-linux/8/include/stddef.h"
	.file 26 "<built-in>"
	.file 27 "/usr/include/bits/types/wint_t.h"
	.file 28 "/usr/include/bits/types/__mbstate_t.h"
	.file 29 "/usr/include/bits/types/mbstate_t.h"
	.file 30 "/usr/include/bits/types/__FILE.h"
	.file 31 "/usr/include/bits/types/struct_FILE.h"
	.file 32 "/usr/include/bits/types/FILE.h"
	.file 33 "/usr/include/wchar.h"
	.file 34 "/usr/include/bits/types/struct_tm.h"
	.file 35 "/usr/include/bits/types.h"
	.file 36 "/usr/include/bits/stdint-intn.h"
	.file 37 "/usr/include/bits/stdint-uintn.h"
	.file 38 "/usr/include/stdint.h"
	.file 39 "/usr/include/locale.h"
	.file 40 "/usr/include/bits/types/time_t.h"
	.file 41 "/usr/include/bits/types/clock_t.h"
	.file 42 "/usr/include/time.h"
	.file 43 "/usr/include/c++/8/x86_64-redhat-linux/bits/atomic_word.h"
	.file 44 "/usr/include/stdlib.h"
	.file 45 "/usr/include/bits/types/__fpos_t.h"
	.file 46 "/usr/include/stdio.h"
	.file 47 "/usr/include/bits/sys_errlist.h"
	.file 48 "/usr/include/errno.h"
	.file 49 "/usr/include/bits/wctype-wchar.h"
	.file 50 "/usr/include/wctype.h"
	.section	.note.GNU-stack,"",@progbits
